#include <math.h>
#include <stdio.h>
#include <stdlib.h>
#include <string.h>

int main()
{
	int n,len,i,t,r,cout[500]={0},max,j;
    char a[500],b[300][5];
	scanf("%d",&n);
	getchar();
	gets(a);
	len=strlen(a);
	t=0;
	for(i=0;i<len;i++)
	{
		for(j=0;j<n;j++)
		{
			b[t][j]=a[i];
			i++;
		}
		b[t][j]=0;
		i=i-n;
		t++;
	}
	r=0;
	for(i=0;i<len;i++)
	{
		for(j=i;j<t;j++)
		{
			if(strcmp(b[i],b[j])==0)
			{
				cout[r]++;
			}
		}
		r++;
	}
	max=cout[0];
	for(i=0;i<len;i++)
	{
		if(max<cout[i])
		{
			max=cout[i];
		}
	}
	if(max==1)
	{
		printf("NO");
		return 0;
	}
	printf("%d\n",max);
	for(i=0;i<len;i++)
	{
		if(max==cout[i])
		{
			printf("%s\n",b[i]);
		}
	}
	return 0;
}


